target datalayout = "e-m:e-p270:32:32-p271:32:32-p272:64:64-i64:64-i128:128-f80:128-n8:16:32:64-S128"
target triple = "x86_64-pc-linux-gnu"

@.str = private unnamed_addr constant [31 x i8] c"../openssl/crypto/bn/bn_rand.c\00", align 1
@__func__.ossl_bn_gen_dsa_nonce_fixed_top = private unnamed_addr constant [32 x i8] c"ossl_bn_gen_dsa_nonce_fixed_top\00", align 1
@.str.1 = private unnamed_addr constant [7 x i8] c"SHA512\00", align 1

; Function Attrs: nounwind uwtable
define i32 @ossl_bn_gen_dsa_nonce_fixed_top(ptr noundef %0, ptr noundef %1, ptr noundef %2, ptr noundef %3, i64 noundef %4, ptr noundef %5) #0 {
  %7 = alloca i32, align 4
  %8 = alloca ptr, align 8
  %9 = alloca ptr, align 8
  %10 = alloca ptr, align 8
  %11 = alloca ptr, align 8
  %12 = alloca i64, align 8
  %13 = alloca ptr, align 8
  %14 = alloca ptr, align 8
  %15 = alloca [64 x i8], align 16
  %16 = alloca [64 x i8], align 16
  %17 = alloca i32, align 4
  %18 = alloca i32, align 4
  %19 = alloca i32, align 4
  %20 = alloca [96 x i8], align 16
  %21 = alloca ptr, align 8
  %22 = alloca i32, align 4
  %23 = alloca i32, align 4
  %24 = alloca i32, align 4
  %25 = alloca ptr, align 8
  %26 = alloca ptr, align 8
  %27 = alloca i8, align 1
  %28 = alloca i32, align 4
  store ptr %0, ptr %8, align 8, !tbaa !3
  store ptr %1, ptr %9, align 8, !tbaa !3
  store ptr %2, ptr %10, align 8, !tbaa !3
  store ptr %3, ptr %11, align 8, !tbaa !12
  store i64 %4, ptr %12, align 8, !tbaa !25
  store ptr %5, ptr %13, align 8, !tbaa !10
  call void @llvm.lifetime.start.p0(i64 8, ptr %14) #4
  %29 = call ptr @EVP_MD_CTX_new()
  store ptr %29, ptr %14, align 8, !tbaa !27
  call void @llvm.lifetime.start.p0(i64 64, ptr %15) #4
  call void @llvm.lifetime.start.p0(i64 64, ptr %16) #4
  call void @llvm.lifetime.start.p0(i64 4, ptr %17) #4
  call void @llvm.lifetime.start.p0(i64 4, ptr %18) #4
  call void @llvm.lifetime.start.p0(i64 4, ptr %19) #4
  %30 = load ptr, ptr %9, align 8, !tbaa !3
  %31 = call i32 @BN_num_bits(ptr noundef %30)
  %32 = add nsw i32 %31, 7
  %33 = sdiv i32 %32, 8
  %34 = add nsw i32 %33, 1
  store i32 %34, ptr %19, align 4, !tbaa !8
  call void @llvm.lifetime.start.p0(i64 96, ptr %20) #4
  call void @llvm.lifetime.start.p0(i64 8, ptr %21) #4
  store ptr null, ptr %21, align 8, !tbaa !12
  call void @llvm.lifetime.start.p0(i64 4, ptr %22) #4
  store i32 64, ptr %22, align 4, !tbaa !8
  call void @llvm.lifetime.start.p0(i64 4, ptr %23) #4
  call void @llvm.lifetime.start.p0(i64 4, ptr %24) #4
  store i32 0, ptr %24, align 4, !tbaa !8
  call void @llvm.lifetime.start.p0(i64 8, ptr %25) #4
  store ptr null, ptr %25, align 8, !tbaa !29
  call void @llvm.lifetime.start.p0(i64 8, ptr %26) #4
  %35 = load ptr, ptr %13, align 8, !tbaa !10
  %36 = call ptr @ossl_bn_get_libctx(ptr noundef %35)
  store ptr %36, ptr %26, align 8, !tbaa !14
  %37 = load ptr, ptr %14, align 8, !tbaa !27
  %38 = icmp eq ptr %37, null
  br i1 %38, label %39, label %40

39:                                               ; preds = %6
  br label %153

40:                                               ; preds = %6
  %41 = load i32, ptr %19, align 4, !tbaa !8
  %42 = zext i32 %41 to i64
  %43 = call noalias ptr @CRYPTO_malloc(i64 noundef %42, ptr noundef @.str, i32 noundef 320)
  store ptr %43, ptr %21, align 8, !tbaa !12
  %44 = load ptr, ptr %21, align 8, !tbaa !12
  %45 = icmp eq ptr %44, null
  br i1 %45, label %46, label %47

46:                                               ; preds = %40
  br label %153

47:                                               ; preds = %40
  %48 = load ptr, ptr %21, align 8, !tbaa !12
  %49 = getelementptr inbounds i8, ptr %48, i64 0
  store i8 -1, ptr %49, align 1, !tbaa !16
  %50 = load ptr, ptr %10, align 8, !tbaa !3
  %51 = getelementptr inbounds [96 x i8], ptr %20, i64 0, i64 0
  %52 = call i32 @BN_bn2binpad(ptr noundef %50, ptr noundef %51, i32 noundef 96)
  %53 = icmp slt i32 %52, 0
  br i1 %53, label %54, label %55

54:                                               ; preds = %47
  call void @ERR_new()
  call void @ERR_set_debug(ptr noundef @.str, i32 noundef 333, ptr noundef @__func__.ossl_bn_gen_dsa_nonce_fixed_top)
  call void (i32, i32, ptr, ...) @ERR_set_error(i32 noundef 3, i32 noundef 117, ptr noundef null)
  br label %153

55:                                               ; preds = %47
  %56 = load ptr, ptr %26, align 8, !tbaa !14
  %57 = call ptr @EVP_MD_fetch(ptr noundef %56, ptr noundef @.str.1, ptr noundef null)
  store ptr %57, ptr %25, align 8, !tbaa !29
  %58 = load ptr, ptr %25, align 8, !tbaa !29
  %59 = icmp eq ptr %58, null
  br i1 %59, label %60, label %61

60:                                               ; preds = %55
  call void @ERR_new()
  call void @ERR_set_debug(ptr noundef @.str, i32 noundef 339, ptr noundef @__func__.ossl_bn_gen_dsa_nonce_fixed_top)
  call void (i32, i32, ptr, ...) @ERR_set_error(i32 noundef 3, i32 noundef 120, ptr noundef null)
  br label %153

61:                                               ; preds = %55
  store i32 0, ptr %23, align 4, !tbaa !8
  br label %62

62:                                               ; preds = %149, %61
  %63 = load i32, ptr %23, align 4, !tbaa !8
  %64 = icmp slt i32 %63, 64
  br i1 %64, label %65, label %152

65:                                               ; preds = %62
  call void @llvm.lifetime.start.p0(i64 1, ptr %27) #4
  store i8 0, ptr %27, align 1, !tbaa !16
  store i32 1, ptr %17, align 4, !tbaa !8
  br label %66

66:                                               ; preds = %114, %65
  %67 = load i32, ptr %17, align 4, !tbaa !8
  %68 = load i32, ptr %19, align 4, !tbaa !8
  %69 = icmp ult i32 %67, %68
  br i1 %69, label %70, label %127

70:                                               ; preds = %66
  %71 = load ptr, ptr %26, align 8, !tbaa !14
  %72 = getelementptr inbounds [64 x i8], ptr %15, i64 0, i64 0
  %73 = call i32 @RAND_priv_bytes_ex(ptr noundef %71, ptr noundef %72, i64 noundef 64, i32 noundef 0)
  %74 = icmp sle i32 %73, 0
  br i1 %74, label %75, label %76

75:                                               ; preds = %70
  store i32 2, ptr %28, align 4
  br label %146

76:                                               ; preds = %70
  %77 = load ptr, ptr %14, align 8, !tbaa !27
  %78 = load ptr, ptr %25, align 8, !tbaa !29
  %79 = call i32 @EVP_DigestInit_ex(ptr noundef %77, ptr noundef %78, ptr noundef null)
  %80 = icmp ne i32 %79, 0
  br i1 %80, label %81, label %106

81:                                               ; preds = %76
  %82 = load ptr, ptr %14, align 8, !tbaa !27
  %83 = call i32 @EVP_DigestUpdate(ptr noundef %82, ptr noundef %27, i64 noundef 1)
  %84 = icmp ne i32 %83, 0
  br i1 %84, label %85, label %106

85:                                               ; preds = %81
  %86 = load ptr, ptr %14, align 8, !tbaa !27
  %87 = getelementptr inbounds [96 x i8], ptr %20, i64 0, i64 0
  %88 = call i32 @EVP_DigestUpdate(ptr noundef %86, ptr noundef %87, i64 noundef 96)
  %89 = icmp ne i32 %88, 0
  br i1 %89, label %90, label %106

90:                                               ; preds = %85
  %91 = load ptr, ptr %14, align 8, !tbaa !27
  %92 = load ptr, ptr %11, align 8, !tbaa !12
  %93 = load i64, ptr %12, align 8, !tbaa !25
  %94 = call i32 @EVP_DigestUpdate(ptr noundef %91, ptr noundef %92, i64 noundef %93)
  %95 = icmp ne i32 %94, 0
  br i1 %95, label %96, label %106

96:                                               ; preds = %90
  %97 = load ptr, ptr %14, align 8, !tbaa !27
  %98 = getelementptr inbounds [64 x i8], ptr %15, i64 0, i64 0
  %99 = call i32 @EVP_DigestUpdate(ptr noundef %97, ptr noundef %98, i64 noundef 64)
  %100 = icmp ne i32 %99, 0
  br i1 %100, label %101, label %106

101:                                              ; preds = %96
  %102 = load ptr, ptr %14, align 8, !tbaa !27
  %103 = getelementptr inbounds [64 x i8], ptr %16, i64 0, i64 0
  %104 = call i32 @EVP_DigestFinal_ex(ptr noundef %102, ptr noundef %103, ptr noundef null)
  %105 = icmp ne i32 %104, 0
  br i1 %105, label %107, label %106

106:                                              ; preds = %101, %96, %90, %85, %81, %76
  store i32 2, ptr %28, align 4
  br label %146

107:                                              ; preds = %101
  %108 = load i32, ptr %19, align 4, !tbaa !8
  %109 = load i32, ptr %17, align 4, !tbaa !8
  %110 = sub i32 %108, %109
  store i32 %110, ptr %18, align 4, !tbaa !8
  %111 = load i32, ptr %18, align 4, !tbaa !8
  %112 = icmp ugt i32 %111, 64
  br i1 %112, label %113, label %114

113:                                              ; preds = %107
  store i32 64, ptr %18, align 4, !tbaa !8
  br label %114

114:                                              ; preds = %113, %107
  %115 = load ptr, ptr %21, align 8, !tbaa !12
  %116 = load i32, ptr %17, align 4, !tbaa !8
  %117 = zext i32 %116 to i64
  %118 = getelementptr inbounds nuw i8, ptr %115, i64 %117
  %119 = getelementptr inbounds [64 x i8], ptr %16, i64 0, i64 0
  %120 = load i32, ptr %18, align 4, !tbaa !8
  %121 = zext i32 %120 to i64
  call void @llvm.memcpy.p0.p0.i64(ptr align 1 %118, ptr align 16 %119, i64 %121, i1 false)
  %122 = load i32, ptr %18, align 4, !tbaa !8
  %123 = load i32, ptr %17, align 4, !tbaa !8
  %124 = add i32 %123, %122
  store i32 %124, ptr %17, align 4, !tbaa !8
  %125 = load i8, ptr %27, align 1, !tbaa !16
  %126 = add i8 %125, 1
  store i8 %126, ptr %27, align 1, !tbaa !16
  br label %66, !llvm.loop !31

127:                                              ; preds = %66
  %128 = load ptr, ptr %21, align 8, !tbaa !12
  %129 = load i32, ptr %19, align 4, !tbaa !8
  %130 = load ptr, ptr %8, align 8, !tbaa !3
  %131 = call ptr @BN_bin2bn(ptr noundef %128, i32 noundef %129, ptr noundef %130)
  %132 = icmp ne ptr %131, null
  br i1 %132, label %134, label %133

133:                                              ; preds = %127
  store i32 2, ptr %28, align 4
  br label %146

134:                                              ; preds = %127
  %135 = load ptr, ptr %8, align 8, !tbaa !3
  call void @BN_set_flags(ptr noundef %135, i32 noundef 4)
  %136 = load ptr, ptr %8, align 8, !tbaa !3
  %137 = load ptr, ptr %9, align 8, !tbaa !3
  %138 = call i32 @BN_num_bits(ptr noundef %137)
  %139 = call i32 @ossl_bn_mask_bits_fixed_top(ptr noundef %136, i32 noundef %138)
  %140 = load ptr, ptr %8, align 8, !tbaa !3
  %141 = load ptr, ptr %9, align 8, !tbaa !3
  %142 = call i32 @BN_ucmp(ptr noundef %140, ptr noundef %141)
  %143 = icmp slt i32 %142, 0
  br i1 %143, label %144, label %145

144:                                              ; preds = %134
  store i32 1, ptr %24, align 4, !tbaa !8
  store i32 2, ptr %28, align 4
  br label %146

145:                                              ; preds = %134
  store i32 0, ptr %28, align 4
  br label %146

146:                                              ; preds = %144, %133, %106, %75, %145
  call void @llvm.lifetime.end.p0(i64 1, ptr %27) #4
  %147 = load i32, ptr %28, align 4
  switch i32 %147, label %163 [
    i32 0, label %148
    i32 2, label %153
  ]

148:                                              ; preds = %146
  br label %149

149:                                              ; preds = %148
  %150 = load i32, ptr %23, align 4, !tbaa !8
  %151 = add nsw i32 %150, 1
  store i32 %151, ptr %23, align 4, !tbaa !8
  br label %62, !llvm.loop !32

152:                                              ; preds = %62
  call void @ERR_new()
  call void @ERR_set_debug(ptr noundef @.str, i32 noundef 385, ptr noundef @__func__.ossl_bn_gen_dsa_nonce_fixed_top)
  call void (i32, i32, ptr, ...) @ERR_set_error(i32 noundef 3, i32 noundef 786691, ptr noundef null)
  br label %153

153:                                              ; preds = %152, %146, %60, %54, %46, %39
  %154 = load ptr, ptr %14, align 8, !tbaa !27
  call void @EVP_MD_CTX_free(ptr noundef %154)
  %155 = load ptr, ptr %25, align 8, !tbaa !29
  call void @EVP_MD_free(ptr noundef %155)
  %156 = load ptr, ptr %21, align 8, !tbaa !12
  %157 = load i32, ptr %19, align 4, !tbaa !8
  %158 = zext i32 %157 to i64
  call void @CRYPTO_clear_free(ptr noundef %156, i64 noundef %158, ptr noundef @.str, i32 noundef 390)
  %159 = getelementptr inbounds [64 x i8], ptr %16, i64 0, i64 0
  call void @OPENSSL_cleanse(ptr noundef %159, i64 noundef 64)
  %160 = getelementptr inbounds [64 x i8], ptr %15, i64 0, i64 0
  call void @OPENSSL_cleanse(ptr noundef %160, i64 noundef 64)
  %161 = getelementptr inbounds [96 x i8], ptr %20, i64 0, i64 0
  call void @OPENSSL_cleanse(ptr noundef %161, i64 noundef 96)
  %162 = load i32, ptr %24, align 4, !tbaa !8
  store i32 %162, ptr %7, align 4
  store i32 1, ptr %28, align 4
  br label %163

163:                                              ; preds = %153, %146
  call void @llvm.lifetime.end.p0(i64 8, ptr %26) #4
  call void @llvm.lifetime.end.p0(i64 8, ptr %25) #4
  call void @llvm.lifetime.end.p0(i64 4, ptr %24) #4
  call void @llvm.lifetime.end.p0(i64 4, ptr %23) #4
  call void @llvm.lifetime.end.p0(i64 4, ptr %22) #4
  call void @llvm.lifetime.end.p0(i64 8, ptr %21) #4
  call void @llvm.lifetime.end.p0(i64 96, ptr %20) #4
  call void @llvm.lifetime.end.p0(i64 4, ptr %19) #4
  call void @llvm.lifetime.end.p0(i64 4, ptr %18) #4
  call void @llvm.lifetime.end.p0(i64 4, ptr %17) #4
  call void @llvm.lifetime.end.p0(i64 64, ptr %16) #4
  call void @llvm.lifetime.end.p0(i64 64, ptr %15) #4
  call void @llvm.lifetime.end.p0(i64 8, ptr %14) #4
  %164 = load i32, ptr %7, align 4
  ret i32 %164
}