; Function Attrs: nounwind uwtable
define range(i32 0, 2) i32 @ossl_bn_gen_dsa_nonce_fixed_top(ptr noundef %0, ptr noundef %1, ptr noundef %2, ptr noundef %3, i64 noundef %4, ptr noundef %5) local_unnamed_addr #0 {
  %7 = alloca [64 x i8], align 16
  %8 = alloca [64 x i8], align 16
  %9 = alloca [96 x i8], align 16
  %10 = alloca i8, align 1
  %11 = tail call ptr @EVP_MD_CTX_new() #5
  call void @llvm.lifetime.start.p0(i64 64, ptr nonnull %7) #5
  call void @llvm.lifetime.start.p0(i64 64, ptr nonnull %8) #5
  %12 = tail call i32 @BN_num_bits(ptr noundef %1) #5
  %13 = add nsw i32 %12, 7
  %14 = sdiv i32 %13, 8
  %15 = add nsw i32 %14, 1
  call void @llvm.lifetime.start.p0(i64 96, ptr nonnull %9) #5
  %16 = tail call ptr @ossl_bn_get_libctx(ptr noundef %5) #5
  %17 = icmp eq ptr %11, null
  %.pre = zext i32 %15 to i64
  br i1 %17, label %._crit_edge, label %18

18:                                               ; preds = %6
  %19 = tail call noalias ptr @CRYPTO_malloc(i64 noundef %.pre, ptr noundef nonnull @.str, i32 noundef 320) #5
  %20 = icmp eq ptr %19, null
  br i1 %20, label %._crit_edge, label %21

21:                                               ; preds = %18
  store i8 -1, ptr %19, align 1, !tbaa !3
  %22 = call i32 @BN_bn2binpad(ptr noundef %2, ptr noundef nonnull %9, i32 noundef 96) #5
  %23 = icmp slt i32 %22, 0
  br i1 %23, label %24, label %25

24:                                               ; preds = %21
  call void @ERR_new() #5
  call void @ERR_set_debug(ptr noundef nonnull @.str, i32 noundef 333, ptr noundef nonnull @__func__.ossl_bn_gen_dsa_nonce_fixed_top) #5
  call void (i32, i32, ptr, ...) @ERR_set_error(i32 noundef 3, i32 noundef 117, ptr noundef null) #5
  br label %._crit_edge

25:                                               ; preds = %21
  %26 = call ptr @EVP_MD_fetch(ptr noundef %16, ptr noundef nonnull @.str.1, ptr noundef null) #5
  %27 = icmp eq ptr %26, null
  br i1 %27, label %61, label %.preheader

.preheader:                                       ; preds = %25
  %28 = icmp ugt i32 %15, 1
  br i1 %28, label %.lr.ph.us, label %.preheader.split

.lr.ph.us:                                        ; preds = %.preheader, %34
  %.04870.us = phi i32 [ %35, %34 ], [ 0, %.preheader ]
  call void @llvm.lifetime.start.p0(i64 1, ptr nonnull %10) #5
  store i8 0, ptr %10, align 1, !tbaa !3
  br label %36

29:                                               ; preds = %._crit_edge.us
  call void @BN_set_flags(ptr noundef %0, i32 noundef 4) #5
  %30 = call i32 @BN_num_bits(ptr noundef %1) #5
  %31 = call i32 @ossl_bn_mask_bits_fixed_top(ptr noundef %0, i32 noundef %30) #5
  %32 = call i32 @BN_ucmp(ptr noundef %0, ptr noundef %1) #5
  %33 = icmp slt i32 %32, 0
  br i1 %33, label %.thread, label %34

34:                                               ; preds = %29
  call void @llvm.lifetime.end.p0(i64 1, ptr nonnull %10) #5
  %35 = add nuw nsw i32 %.04870.us, 1
  %exitcond75.not = icmp eq i32 %35, 64
  br i1 %exitcond75.not, label %.split.us, label %.lr.ph.us, !llvm.loop !16

36:                                               ; preds = %.lr.ph.us, %51
  %.04969.us = phi i32 [ 1, %.lr.ph.us ], [ %56, %51 ]
  %37 = call i32 @RAND_priv_bytes_ex(ptr noundef %16, ptr noundef nonnull %7, i64 noundef 64, i32 noundef 0) #5
  %38 = icmp slt i32 %37, 1
  br i1 %38, label %.thread, label %39

39:                                               ; preds = %36
  %40 = call i32 @EVP_DigestInit_ex(ptr noundef nonnull %11, ptr noundef nonnull %26, ptr noundef null) #5
  %.not58.us = icmp eq i32 %40, 0
  br i1 %.not58.us, label %.thread, label %41

41:                                               ; preds = %39
  %42 = call i32 @EVP_DigestUpdate(ptr noundef nonnull %11, ptr noundef nonnull %10, i64 noundef 1) #5
  %.not59.us = icmp eq i32 %42, 0
  br i1 %.not59.us, label %.thread, label %43

43:                                               ; preds = %41
  %44 = call i32 @EVP_DigestUpdate(ptr noundef nonnull %11, ptr noundef nonnull %9, i64 noundef 96) #5
  %.not60.us = icmp eq i32 %44, 0
  br i1 %.not60.us, label %.thread, label %45

45:                                               ; preds = %43
  %46 = call i32 @EVP_DigestUpdate(ptr noundef nonnull %11, ptr noundef %3, i64 noundef %4) #5
  %.not61.us = icmp eq i32 %46, 0
  br i1 %.not61.us, label %.thread, label %47

47:                                               ; preds = %45
  %48 = call i32 @EVP_DigestUpdate(ptr noundef nonnull %11, ptr noundef nonnull %7, i64 noundef 64) #5
  %.not62.us = icmp eq i32 %48, 0
  br i1 %.not62.us, label %.thread, label %49

49:                                               ; preds = %47
  %50 = call i32 @EVP_DigestFinal_ex(ptr noundef nonnull %11, ptr noundef nonnull %8, ptr noundef null) #5
  %.not63.us = icmp eq i32 %50, 0
  br i1 %.not63.us, label %.thread, label %51

51:                                               ; preds = %49
  %52 = sub i32 %15, %.04969.us
  %spec.store.select.us = call i32 @llvm.umin.i32(i32 %52, i32 64)
  %53 = zext i32 %.04969.us to i64
  %54 = getelementptr inbounds nuw i8, ptr %19, i64 %53
  %55 = zext nneg i32 %spec.store.select.us to i64
  call void @llvm.memcpy.p0.p0.i64(ptr nonnull align 1 %54, ptr nonnull align 16 %8, i64 %55, i1 false)
  %56 = add i32 %spec.store.select.us, %.04969.us
  %57 = load i8, ptr %10, align 1, !tbaa !3
  %58 = add i8 %57, 1
  store i8 %58, ptr %10, align 1, !tbaa !3
  %59 = icmp ult i32 %56, %15
  br i1 %59, label %36, label %._crit_edge.us, !llvm.loop !17

._crit_edge.us:                                   ; preds = %51
  %60 = call ptr @BN_bin2bn(ptr noundef nonnull %19, i32 noundef %15, ptr noundef %0) #5
  %.not.us = icmp eq ptr %60, null
  br i1 %.not.us, label %.thread, label %29

61:                                               ; preds = %25
  call void @ERR_new() #5
  call void @ERR_set_debug(ptr noundef nonnull @.str, i32 noundef 339, ptr noundef nonnull @__func__.ossl_bn_gen_dsa_nonce_fixed_top) #5
  call void (i32, i32, ptr, ...) @ERR_set_error(i32 noundef 3, i32 noundef 120, ptr noundef null) #5
  br label %._crit_edge

.preheader.split:                                 ; preds = %.preheader, %68
  %.04870 = phi i32 [ %69, %68 ], [ 0, %.preheader ]
  call void @llvm.lifetime.start.p0(i64 1, ptr nonnull %10) #5
  %62 = call ptr @BN_bin2bn(ptr noundef nonnull %19, i32 noundef %15, ptr noundef %0) #5
  %.not = icmp eq ptr %62, null
  br i1 %.not, label %.thread, label %63

63:                                               ; preds = %.preheader.split
  call void @BN_set_flags(ptr noundef %0, i32 noundef 4) #5
  %64 = call i32 @BN_num_bits(ptr noundef %1) #5
  %65 = call i32 @ossl_bn_mask_bits_fixed_top(ptr noundef %0, i32 noundef %64) #5
  %66 = call i32 @BN_ucmp(ptr noundef %0, ptr noundef %1) #5
  %67 = icmp slt i32 %66, 0
  br i1 %67, label %.thread, label %68

.thread:                                          ; preds = %63, %.preheader.split, %29, %._crit_edge.us, %49, %47, %45, %43, %41, %39, %36
  %.2.ph = phi i32 [ 0, %36 ], [ 0, %39 ], [ 0, %41 ], [ 0, %43 ], [ 0, %45 ], [ 0, %47 ], [ 0, %49 ], [ 1, %29 ], [ 0, %._crit_edge.us ], [ 1, %63 ], [ 0, %.preheader.split ]
  call void @llvm.lifetime.end.p0(i64 1, ptr nonnull %10) #5
  br label %._crit_edge

68:                                               ; preds = %63
  call void @llvm.lifetime.end.p0(i64 1, ptr nonnull %10) #5
  %69 = add nuw nsw i32 %.04870, 1
  %exitcond.not = icmp eq i32 %69, 64
  br i1 %exitcond.not, label %.split.us, label %.preheader.split, !llvm.loop !16

.split.us:                                        ; preds = %68, %34
  call void @ERR_new() #5
  call void @ERR_set_debug(ptr noundef nonnull @.str, i32 noundef 385, ptr noundef nonnull @__func__.ossl_bn_gen_dsa_nonce_fixed_top) #5
  call void (i32, i32, ptr, ...) @ERR_set_error(i32 noundef 3, i32 noundef 786691, ptr noundef null) #5
  br label %._crit_edge

._crit_edge:                                      ; preds = %6, %.thread, %18, %.split.us, %61, %24
  %.050 = phi ptr [ %19, %.thread ], [ null, %18 ], [ %19, %.split.us ], [ %19, %61 ], [ %19, %24 ], [ null, %6 ]
  %.047 = phi i32 [ %.2.ph, %.thread ], [ 0, %18 ], [ 0, %.split.us ], [ 0, %61 ], [ 0, %24 ], [ 0, %6 ]
  %.046 = phi ptr [ %26, %.thread ], [ null, %18 ], [ %26, %.split.us ], [ null, %61 ], [ null, %24 ], [ null, %6 ]
  call void @EVP_MD_CTX_free(ptr noundef %11) #5
  call void @EVP_MD_free(ptr noundef %.046) #5
  call void @CRYPTO_clear_free(ptr noundef %.050, i64 noundef %.pre, ptr noundef nonnull @.str, i32 noundef 390) #5
  call void @OPENSSL_cleanse(ptr noundef nonnull %8, i64 noundef 64) #5
  call void @OPENSSL_cleanse(ptr noundef nonnull %7, i64 noundef 64) #5
  call void @OPENSSL_cleanse(ptr noundef nonnull %9, i64 noundef 96) #5
  call void @llvm.lifetime.end.p0(i64 96, ptr nonnull %9) #5
  call void @llvm.lifetime.end.p0(i64 64, ptr nonnull %8) #5
  call void @llvm.lifetime.end.p0(i64 64, ptr nonnull %7) #5
  ret i32 %.047
}